Certificate:
    Data:
        Version: 1 (0x0)
        Serial Number: 4120 (0x1018)
        Signature Algorithm: ecdsa-with-SHA256
        Issuer: C=CH, ST=Geneva, O=WHO, OU=TNG_TA, CN=WHO TNG_TA CA
        Validity
            Not Before: Jul 20 09:52:01 2023 GMT
            Not After : Jul 29 09:52:01 2024 GMT
        Subject: C=IS, O=Directorate of Health, OU=National Centre for e-Health, CN=IS-UP-DCC-2023
        Subject Public Key Info:
            Public Key Algorithm: id-ecPublicKey
                Public-Key: (256 bit)
                pub:
                    04:4d:be:55:4f:c6:7a:51:0e:82:12:e1:77:83:4b:
                    8f:e5:11:cf:03:ab:6d:9c:1f:db:d8:f9:5e:fd:85:
                    42:c8:09:91:58:9c:4c:95:0a:46:ec:05:57:03:c4:
                    6a:a0:4b:69:a4:04:30:eb:d1:e7:e0:da:2a:d0:ac:
                    83:9d:52:46:ed
                ASN1 OID: prime256v1
                NIST CURVE: P-256
    Signature Algorithm: ecdsa-with-SHA256
    Signature Value:
        30:46:02:21:00:95:3c:0d:f7:1a:2e:c1:95:9c:c5:d0:02:6e:
        53:8b:de:74:9b:0e:44:fc:b5:b5:d1:84:8f:de:57:89:24:f1:
        46:02:21:00:b0:4c:2b:2a:10:e2:a4:0b:ae:e6:38:24:d6:8e:
        18:6f:39:08:27:8f:0a:df:91:8c:b9:09:30:83:10:79:31:b7
-----BEGIN CERTIFICATE-----
MIIBrDCCAVECAhAYMAoGCCqGSM49BAMCMFUxCzAJBgNVBAYTAkNIMQ8wDQYDVQQI
DAZHZW5ldmExDDAKBgNVBAoMA1dITzEPMA0GA1UECwwGVE5HX1RBMRYwFAYDVQQD
DA1XSE8gVE5HX1RBIENBMB4XDTIzMDcyMDA5NTIwMVoXDTI0MDcyOTA5NTIwMVow
bTELMAkGA1UEBhMCSVMxHjAcBgNVBAoMFURpcmVjdG9yYXRlIG9mIEhlYWx0aDEl
MCMGA1UECwwcTmF0aW9uYWwgQ2VudHJlIGZvciBlLUhlYWx0aDEXMBUGA1UEAwwO
SVMtVVAtRENDLTIwMjMwWTATBgcqhkjOPQIBBggqhkjOPQMBBwNCAARNvlVPxnpR
DoIS4XeDS4/lEc8Dq22cH9vY+V79hULICZFYnEyVCkbsBVcDxGqgS2mkBDDr0efg
2irQrIOdUkbtMAoGCCqGSM49BAMCA0kAMEYCIQCVPA33Gi7BlZzF0AJuU4vedJsO
RPy1tdGEj95XiSTxRgIhALBMKyoQ4qQLruY4JNaOGG85CCePCt+RjLkJMIMQeTG3
-----END CERTIFICATE-----
