Certificate:
    Data:
        Version: 1 (0x0)
        Serial Number: 4109 (0x100d)
        Signature Algorithm: ecdsa-with-SHA256
        Issuer: C=CH, ST=Geneva, O=WHO, OU=TNG_TA, CN=WHO TNG_TA CA
        Validity
            Not Before: Jun 28 11:06:12 2023 GMT
            Not After : Jul  7 11:06:12 2024 GMT
        Subject: C=IS, O=Directorate of Health, OU=National Centre for e-Health, CN=IS-UP-DCC-2023
        Subject Public Key Info:
            Public Key Algorithm: id-ecPublicKey
                Public-Key: (256 bit)
                pub:
                    04:4d:be:55:4f:c6:7a:51:0e:82:12:e1:77:83:4b:
                    8f:e5:11:cf:03:ab:6d:9c:1f:db:d8:f9:5e:fd:85:
                    42:c8:09:91:58:9c:4c:95:0a:46:ec:05:57:03:c4:
                    6a:a0:4b:69:a4:04:30:eb:d1:e7:e0:da:2a:d0:ac:
                    83:9d:52:46:ed
                ASN1 OID: prime256v1
                NIST CURVE: P-256
    Signature Algorithm: ecdsa-with-SHA256
    Signature Value:
        30:45:02:20:5f:a8:1f:a0:ac:8a:ee:a7:c5:92:f5:df:e0:cc:
        2a:da:90:1a:84:8d:42:55:86:b6:9d:07:24:d9:1b:b9:0b:56:
        02:21:00:fe:7f:a7:43:5d:38:27:cd:a2:5d:5e:ef:5a:3c:dd:
        55:7f:f9:e4:21:ba:45:13:14:e5:92:5d:31:21:2a:72:06
-----BEGIN CERTIFICATE-----
MIIBqzCCAVECAhANMAoGCCqGSM49BAMCMFUxCzAJBgNVBAYTAkNIMQ8wDQYDVQQI
DAZHZW5ldmExDDAKBgNVBAoMA1dITzEPMA0GA1UECwwGVE5HX1RBMRYwFAYDVQQD
DA1XSE8gVE5HX1RBIENBMB4XDTIzMDYyODExMDYxMloXDTI0MDcwNzExMDYxMlow
bTELMAkGA1UEBhMCSVMxHjAcBgNVBAoMFURpcmVjdG9yYXRlIG9mIEhlYWx0aDEl
MCMGA1UECwwcTmF0aW9uYWwgQ2VudHJlIGZvciBlLUhlYWx0aDEXMBUGA1UEAwwO
SVMtVVAtRENDLTIwMjMwWTATBgcqhkjOPQIBBggqhkjOPQMBBwNCAARNvlVPxnpR
DoIS4XeDS4/lEc8Dq22cH9vY+V79hULICZFYnEyVCkbsBVcDxGqgS2mkBDDr0efg
2irQrIOdUkbtMAoGCCqGSM49BAMCA0gAMEUCIF+oH6Csiu6nxZL13+DMKtqQGoSN
QlWGtp0HJNkbuQtWAiEA/n+nQ104J82iXV7vWjzdVX/55CG6RRMU5ZJdMSEqcgY=
-----END CERTIFICATE-----
