Certificate:
    Data:
        Version: 1 (0x0)
        Serial Number: 4121 (0x1019)
        Signature Algorithm: ecdsa-with-SHA256
        Issuer: C=CH, ST=Geneva, O=WHO, OU=TNG_TA, CN=WHO TNG_TA CA
        Validity
            Not Before: Jul 20 09:52:01 2023 GMT
            Not After : Jul 29 09:52:01 2024 GMT
        Subject: C=NL, O=Kingdom of the Netherlands, OU=Ministry of Health Welfare and Sport, CN=CSCA Health NL
        Subject Public Key Info:
            Public Key Algorithm: id-ecPublicKey
                Public-Key: (256 bit)
                pub:
                    04:4d:be:55:4f:c6:7a:51:0e:82:12:e1:77:83:4b:
                    8f:e5:11:cf:03:ab:6d:9c:1f:db:d8:f9:5e:fd:85:
                    42:c8:09:91:58:9c:4c:95:0a:46:ec:05:57:03:c4:
                    6a:a0:4b:69:a4:04:30:eb:d1:e7:e0:da:2a:d0:ac:
                    83:9d:52:46:ed
                ASN1 OID: prime256v1
                NIST CURVE: P-256
    Signature Algorithm: ecdsa-with-SHA256
    Signature Value:
        30:44:02:20:42:36:dc:47:93:4f:0a:42:38:81:a6:0c:46:2c:
        52:43:28:70:d1:46:9e:7f:0b:9c:8d:75:59:b1:13:5b:a1:90:
        02:20:36:35:28:71:52:2d:59:4b:3a:27:b5:cd:06:e3:1a:f3:
        ac:01:da:04:30:79:14:ad:78:13:8d:b1:26:a3:11:87
-----BEGIN CERTIFICATE-----
MIIBtzCCAV4CAhAZMAoGCCqGSM49BAMCMFUxCzAJBgNVBAYTAkNIMQ8wDQYDVQQI
DAZHZW5ldmExDDAKBgNVBAoMA1dITzEPMA0GA1UECwwGVE5HX1RBMRYwFAYDVQQD
DA1XSE8gVE5HX1RBIENBMB4XDTIzMDcyMDA5NTIwMVoXDTI0MDcyOTA5NTIwMVow
ejELMAkGA1UEBhMCTkwxIzAhBgNVBAoMGktpbmdkb20gb2YgdGhlIE5ldGhlcmxh
bmRzMS0wKwYDVQQLDCRNaW5pc3RyeSBvZiBIZWFsdGggV2VsZmFyZSBhbmQgU3Bv
cnQxFzAVBgNVBAMMDkNTQ0EgSGVhbHRoIE5MMFkwEwYHKoZIzj0CAQYIKoZIzj0D
AQcDQgAETb5VT8Z6UQ6CEuF3g0uP5RHPA6ttnB/b2Ple/YVCyAmRWJxMlQpG7AVX
A8RqoEtppAQw69Hn4Noq0KyDnVJG7TAKBggqhkjOPQQDAgNHADBEAiBCNtxHk08K
QjiBpgxGLFJDKHDRRp5/C5yNdVmxE1uhkAIgNjUocVItWUs6J7XNBuMa86wB2gQw
eRSteBONsSajEYc=
-----END CERTIFICATE-----
