Certificate:
    Data:
        Version: 1 (0x0)
        Serial Number: 4110 (0x100e)
        Signature Algorithm: ecdsa-with-SHA256
        Issuer: C=CH, ST=Geneva, O=WHO, OU=TNG_TA, CN=WHO TNG_TA CA
        Validity
            Not Before: Jun 28 11:06:12 2023 GMT
            Not After : Jul  7 11:06:12 2024 GMT
        Subject: C=NL, O=Kingdom of the Netherlands, OU=Ministry of Health Welfare and Sport, CN=CSCA Health NL
        Subject Public Key Info:
            Public Key Algorithm: id-ecPublicKey
                Public-Key: (256 bit)
                pub:
                    04:4d:be:55:4f:c6:7a:51:0e:82:12:e1:77:83:4b:
                    8f:e5:11:cf:03:ab:6d:9c:1f:db:d8:f9:5e:fd:85:
                    42:c8:09:91:58:9c:4c:95:0a:46:ec:05:57:03:c4:
                    6a:a0:4b:69:a4:04:30:eb:d1:e7:e0:da:2a:d0:ac:
                    83:9d:52:46:ed
                ASN1 OID: prime256v1
                NIST CURVE: P-256
    Signature Algorithm: ecdsa-with-SHA256
    Signature Value:
        30:45:02:21:00:e4:10:cd:eb:04:9e:81:28:8a:12:e5:5e:82:
        3d:fe:27:b2:ff:c7:e9:b0:60:92:38:39:d3:4f:a1:eb:f0:e4:
        3e:02:20:29:a6:83:c5:cf:f7:35:b2:87:72:ef:ee:14:9a:77:
        61:55:c3:84:40:65:94:36:1e:ac:eb:8e:f1:fc:a9:a1:19
-----BEGIN CERTIFICATE-----
MIIBuDCCAV4CAhAOMAoGCCqGSM49BAMCMFUxCzAJBgNVBAYTAkNIMQ8wDQYDVQQI
DAZHZW5ldmExDDAKBgNVBAoMA1dITzEPMA0GA1UECwwGVE5HX1RBMRYwFAYDVQQD
DA1XSE8gVE5HX1RBIENBMB4XDTIzMDYyODExMDYxMloXDTI0MDcwNzExMDYxMlow
ejELMAkGA1UEBhMCTkwxIzAhBgNVBAoMGktpbmdkb20gb2YgdGhlIE5ldGhlcmxh
bmRzMS0wKwYDVQQLDCRNaW5pc3RyeSBvZiBIZWFsdGggV2VsZmFyZSBhbmQgU3Bv
cnQxFzAVBgNVBAMMDkNTQ0EgSGVhbHRoIE5MMFkwEwYHKoZIzj0CAQYIKoZIzj0D
AQcDQgAETb5VT8Z6UQ6CEuF3g0uP5RHPA6ttnB/b2Ple/YVCyAmRWJxMlQpG7AVX
A8RqoEtppAQw69Hn4Noq0KyDnVJG7TAKBggqhkjOPQQDAgNIADBFAiEA5BDN6wSe
gSiKEuVegj3+J7L/x+mwYJI4OdNPoevw5D4CICmmg8XP9zWyh3Lv7hSad2FVw4RA
ZZQ2HqzrjvH8qaEZ
-----END CERTIFICATE-----
