Certificate:
    Data:
        Version: 1 (0x0)
        Serial Number: 4100 (0x1004)
        Signature Algorithm: ecdsa-with-SHA256
        Issuer: C=CH, ST=Geneva, O=WHO, OU=TNG_TA, CN=WHO TNG_TA CA
        Validity
            Not Before: Jun 27 19:07:32 2023 GMT
            Not After : Jul  6 19:07:32 2024 GMT
        Subject: C=NL, O=Kingdom of the Netherlands, OU=Ministry of Health Welfare and Sport, CN=CSCA Health NL
        Subject Public Key Info:
            Public Key Algorithm: id-ecPublicKey
                Public-Key: (256 bit)
                pub:
                    04:4d:be:55:4f:c6:7a:51:0e:82:12:e1:77:83:4b:
                    8f:e5:11:cf:03:ab:6d:9c:1f:db:d8:f9:5e:fd:85:
                    42:c8:09:91:58:9c:4c:95:0a:46:ec:05:57:03:c4:
                    6a:a0:4b:69:a4:04:30:eb:d1:e7:e0:da:2a:d0:ac:
                    83:9d:52:46:ed
                ASN1 OID: prime256v1
                NIST CURVE: P-256
    Signature Algorithm: ecdsa-with-SHA256
    Signature Value:
        30:45:02:21:00:ca:a5:2c:94:e2:c8:8d:31:d0:77:93:48:20:
        ed:32:54:5a:06:62:0d:42:26:05:f4:f9:e3:e4:01:38:a8:73:
        7c:02:20:41:ab:c5:1d:2b:ed:e1:f3:e4:75:60:88:0e:ba:d4:
        84:38:0d:3d:bd:d7:ef:31:7d:93:fd:f6:11:c8:51:a5:8b
-----BEGIN CERTIFICATE-----
MIIBuDCCAV4CAhAEMAoGCCqGSM49BAMCMFUxCzAJBgNVBAYTAkNIMQ8wDQYDVQQI
DAZHZW5ldmExDDAKBgNVBAoMA1dITzEPMA0GA1UECwwGVE5HX1RBMRYwFAYDVQQD
DA1XSE8gVE5HX1RBIENBMB4XDTIzMDYyNzE5MDczMloXDTI0MDcwNjE5MDczMlow
ejELMAkGA1UEBhMCTkwxIzAhBgNVBAoMGktpbmdkb20gb2YgdGhlIE5ldGhlcmxh
bmRzMS0wKwYDVQQLDCRNaW5pc3RyeSBvZiBIZWFsdGggV2VsZmFyZSBhbmQgU3Bv
cnQxFzAVBgNVBAMMDkNTQ0EgSGVhbHRoIE5MMFkwEwYHKoZIzj0CAQYIKoZIzj0D
AQcDQgAETb5VT8Z6UQ6CEuF3g0uP5RHPA6ttnB/b2Ple/YVCyAmRWJxMlQpG7AVX
A8RqoEtppAQw69Hn4Noq0KyDnVJG7TAKBggqhkjOPQQDAgNIADBFAiEAyqUslOLI
jTHQd5NIIO0yVFoGYg1CJgX0+ePkATioc3wCIEGrxR0r7eHz5HVgiA661IQ4DT29
1+8xfZP99hHIUaWL
-----END CERTIFICATE-----
