Certificate:
    Data:
        Version: 1 (0x0)
        Serial Number: 4119 (0x1017)
        Signature Algorithm: ecdsa-with-SHA256
        Issuer: C=CH, ST=Geneva, O=WHO, OU=TNG_TA, CN=WHO TNG_TA CA
        Validity
            Not Before: Jul 20 09:52:01 2023 GMT
            Not After : Jul 29 09:52:01 2024 GMT
        Subject: C=IS, O=Directorate of Health, OU=National Centre for e-Health, CN=IS_DCC_AUTH_2023_TLS
        Subject Public Key Info:
            Public Key Algorithm: id-ecPublicKey
                Public-Key: (256 bit)
                pub:
                    04:4d:be:55:4f:c6:7a:51:0e:82:12:e1:77:83:4b:
                    8f:e5:11:cf:03:ab:6d:9c:1f:db:d8:f9:5e:fd:85:
                    42:c8:09:91:58:9c:4c:95:0a:46:ec:05:57:03:c4:
                    6a:a0:4b:69:a4:04:30:eb:d1:e7:e0:da:2a:d0:ac:
                    83:9d:52:46:ed
                ASN1 OID: prime256v1
                NIST CURVE: P-256
    Signature Algorithm: ecdsa-with-SHA256
    Signature Value:
        30:44:02:20:15:9d:5a:96:22:d0:be:f5:d1:9c:2a:d7:51:f5:
        fa:b9:5b:2f:3f:c3:75:ce:f5:28:25:87:e3:81:78:62:31:e9:
        02:20:4a:09:35:e4:c6:e2:69:fc:ac:45:3d:ca:03:8e:de:f5:
        77:06:32:95:37:6d:6f:6b:25:c5:a7:23:b0:fc:14:79
-----BEGIN CERTIFICATE-----
MIIBsDCCAVcCAhAXMAoGCCqGSM49BAMCMFUxCzAJBgNVBAYTAkNIMQ8wDQYDVQQI
DAZHZW5ldmExDDAKBgNVBAoMA1dITzEPMA0GA1UECwwGVE5HX1RBMRYwFAYDVQQD
DA1XSE8gVE5HX1RBIENBMB4XDTIzMDcyMDA5NTIwMVoXDTI0MDcyOTA5NTIwMVow
czELMAkGA1UEBhMCSVMxHjAcBgNVBAoMFURpcmVjdG9yYXRlIG9mIEhlYWx0aDEl
MCMGA1UECwwcTmF0aW9uYWwgQ2VudHJlIGZvciBlLUhlYWx0aDEdMBsGA1UEAwwU
SVNfRENDX0FVVEhfMjAyM19UTFMwWTATBgcqhkjOPQIBBggqhkjOPQMBBwNCAARN
vlVPxnpRDoIS4XeDS4/lEc8Dq22cH9vY+V79hULICZFYnEyVCkbsBVcDxGqgS2mk
BDDr0efg2irQrIOdUkbtMAoGCCqGSM49BAMCA0cAMEQCIBWdWpYi0L710Zwq11H1
+rlbLz/Ddc71KCWH44F4YjHpAiBKCTXkxuJp/KxFPcoDjt71dwYylTdtb2slxacj
sPwUeQ==
-----END CERTIFICATE-----
