Certificate:
    Data:
        Version: 1 (0x0)
        Serial Number: 4118 (0x1016)
        Signature Algorithm: ecdsa-with-SHA256
        Issuer: C=CH, ST=Geneva, O=WHO, OU=TNG_TA, CN=WHO TNG_TA CA
        Validity
            Not Before: Jul 20 09:52:01 2023 GMT
            Not After : Jul 29 09:52:01 2024 GMT
        Subject: C=IS, O=Directorate of Health, OU=National Centre for e-Health, CN=IS_DCC_AUTH_2023_TLS
        Subject Public Key Info:
            Public Key Algorithm: id-ecPublicKey
                Public-Key: (256 bit)
                pub:
                    04:4d:be:55:4f:c6:7a:51:0e:82:12:e1:77:83:4b:
                    8f:e5:11:cf:03:ab:6d:9c:1f:db:d8:f9:5e:fd:85:
                    42:c8:09:91:58:9c:4c:95:0a:46:ec:05:57:03:c4:
                    6a:a0:4b:69:a4:04:30:eb:d1:e7:e0:da:2a:d0:ac:
                    83:9d:52:46:ed
                ASN1 OID: prime256v1
                NIST CURVE: P-256
    Signature Algorithm: ecdsa-with-SHA256
    Signature Value:
        30:44:02:20:1c:b6:95:0f:28:1a:c7:d6:23:c9:45:01:4e:95:
        6b:1f:00:f3:c3:a1:6d:c1:b6:c6:2e:09:db:0c:2d:68:53:cb:
        02:20:27:b4:15:74:2b:34:6a:3c:37:18:7f:92:22:24:8d:f4:
        0a:ef:dc:50:39:35:e0:54:24:a9:14:7e:0b:b0:b5:2b
-----BEGIN CERTIFICATE-----
MIIBsDCCAVcCAhAWMAoGCCqGSM49BAMCMFUxCzAJBgNVBAYTAkNIMQ8wDQYDVQQI
DAZHZW5ldmExDDAKBgNVBAoMA1dITzEPMA0GA1UECwwGVE5HX1RBMRYwFAYDVQQD
DA1XSE8gVE5HX1RBIENBMB4XDTIzMDcyMDA5NTIwMVoXDTI0MDcyOTA5NTIwMVow
czELMAkGA1UEBhMCSVMxHjAcBgNVBAoMFURpcmVjdG9yYXRlIG9mIEhlYWx0aDEl
MCMGA1UECwwcTmF0aW9uYWwgQ2VudHJlIGZvciBlLUhlYWx0aDEdMBsGA1UEAwwU
SVNfRENDX0FVVEhfMjAyM19UTFMwWTATBgcqhkjOPQIBBggqhkjOPQMBBwNCAARN
vlVPxnpRDoIS4XeDS4/lEc8Dq22cH9vY+V79hULICZFYnEyVCkbsBVcDxGqgS2mk
BDDr0efg2irQrIOdUkbtMAoGCCqGSM49BAMCA0cAMEQCIBy2lQ8oGsfWI8lFAU6V
ax8A88OhbcG2xi4J2wwtaFPLAiAntBV0KzRqPDcYf5IiJI30Cu/cUDk14FQkqRR+
C7C1Kw==
-----END CERTIFICATE-----
