Certificate:
    Data:
        Version: 1 (0x0)
        Serial Number: 4123 (0x101b)
        Signature Algorithm: ecdsa-with-SHA256
        Issuer: C=CH, ST=Geneva, O=WHO, OU=TNG_TA, CN=WHO TNG_TA CA
        Validity
            Not Before: Jul 20 09:52:02 2023 GMT
            Not After : Jul 29 09:52:02 2024 GMT
        Subject: C=NL, ST=Zuid-Holland, L='s-Gravenhage, O=Ministerie van Volksgezondheid, Welzijn en Sport, CN=dgc-nb-digiclient.coronacheck.nl
        Subject Public Key Info:
            Public Key Algorithm: id-ecPublicKey
                Public-Key: (256 bit)
                pub:
                    04:4d:be:55:4f:c6:7a:51:0e:82:12:e1:77:83:4b:
                    8f:e5:11:cf:03:ab:6d:9c:1f:db:d8:f9:5e:fd:85:
                    42:c8:09:91:58:9c:4c:95:0a:46:ec:05:57:03:c4:
                    6a:a0:4b:69:a4:04:30:eb:d1:e7:e0:da:2a:d0:ac:
                    83:9d:52:46:ed
                ASN1 OID: prime256v1
                NIST CURVE: P-256
    Signature Algorithm: ecdsa-with-SHA256
    Signature Value:
        30:46:02:21:00:9c:7b:8f:d9:5d:14:1a:d2:9d:b3:22:95:3b:
        1f:de:0e:49:4b:41:b7:05:33:e9:2c:fc:d3:e4:7a:02:cc:17:
        a5:02:21:00:ed:0b:63:a0:0a:6f:d2:a7:8c:42:b3:c4:14:15:
        c1:aa:96:63:ac:b6:28:58:99:be:7a:9d:6c:e5:a7:db:54:ef
-----BEGIN CERTIFICATE-----
MIIB4jCCAYcCAhAbMAoGCCqGSM49BAMCMFUxCzAJBgNVBAYTAkNIMQ8wDQYDVQQI
DAZHZW5ldmExDDAKBgNVBAoMA1dITzEPMA0GA1UECwwGVE5HX1RBMRYwFAYDVQQD
DA1XSE8gVE5HX1RBIENBMB4XDTIzMDcyMDA5NTIwMloXDTI0MDcyOTA5NTIwMlow
gaIxCzAJBgNVBAYTAk5MMRUwEwYDVQQIDAxadWlkLUhvbGxhbmQxFjAUBgNVBAcM
DSdzLUdyYXZlbmhhZ2UxOTA3BgNVBAoMME1pbmlzdGVyaWUgdmFuIFZvbGtzZ2V6
b25kaGVpZCwgV2VsemlqbiBlbiBTcG9ydDEpMCcGA1UEAwwgZGdjLW5iLWRpZ2lj
bGllbnQuY29yb25hY2hlY2submwwWTATBgcqhkjOPQIBBggqhkjOPQMBBwNCAARN
vlVPxnpRDoIS4XeDS4/lEc8Dq22cH9vY+V79hULICZFYnEyVCkbsBVcDxGqgS2mk
BDDr0efg2irQrIOdUkbtMAoGCCqGSM49BAMCA0kAMEYCIQCce4/ZXRQa0p2zIpU7
H94OSUtBtwUz6Sz80+R6AswXpQIhAO0LY6AKb9KnjEKzxBQVwaqWY6y2KFiZvnqd
bOWn21Tv
-----END CERTIFICATE-----
