Certificate:
    Data:
        Version: 1 (0x0)
        Serial Number: 4122 (0x101a)
        Signature Algorithm: ecdsa-with-SHA256
        Issuer: C=CH, ST=Geneva, O=WHO, OU=TNG_TA, CN=WHO TNG_TA CA
        Validity
            Not Before: Jul 20 09:52:02 2023 GMT
            Not After : Jul 29 09:52:02 2024 GMT
        Subject: C=BM, O=QuoVadis Limited, CN=QuoVadis Root CA 2 G3
        Subject Public Key Info:
            Public Key Algorithm: id-ecPublicKey
                Public-Key: (256 bit)
                pub:
                    04:4d:be:55:4f:c6:7a:51:0e:82:12:e1:77:83:4b:
                    8f:e5:11:cf:03:ab:6d:9c:1f:db:d8:f9:5e:fd:85:
                    42:c8:09:91:58:9c:4c:95:0a:46:ec:05:57:03:c4:
                    6a:a0:4b:69:a4:04:30:eb:d1:e7:e0:da:2a:d0:ac:
                    83:9d:52:46:ed
                ASN1 OID: prime256v1
                NIST CURVE: P-256
    Signature Algorithm: ecdsa-with-SHA256
    Signature Value:
        30:45:02:21:00:e0:44:e8:0e:02:0c:8c:ac:67:2e:f7:84:8c:
        11:6e:68:1b:6c:12:55:ed:b5:97:39:7e:df:99:fc:a7:46:12:
        05:02:20:5b:a3:78:02:d8:e7:dc:f4:39:91:11:a0:ab:69:a6:
        2c:43:32:4a:b2:9f:91:04:08:11:c9:c6:6d:81:f6:4c:2a
-----BEGIN CERTIFICATE-----
MIIBhjCCASwCAhAaMAoGCCqGSM49BAMCMFUxCzAJBgNVBAYTAkNIMQ8wDQYDVQQI
DAZHZW5ldmExDDAKBgNVBAoMA1dITzEPMA0GA1UECwwGVE5HX1RBMRYwFAYDVQQD
DA1XSE8gVE5HX1RBIENBMB4XDTIzMDcyMDA5NTIwMloXDTI0MDcyOTA5NTIwMlow
SDELMAkGA1UEBhMCQk0xGTAXBgNVBAoMEFF1b1ZhZGlzIExpbWl0ZWQxHjAcBgNV
BAMMFVF1b1ZhZGlzIFJvb3QgQ0EgMiBHMzBZMBMGByqGSM49AgEGCCqGSM49AwEH
A0IABE2+VU/GelEOghLhd4NLj+URzwOrbZwf29j5Xv2FQsgJkVicTJUKRuwFVwPE
aqBLaaQEMOvR5+DaKtCsg51SRu0wCgYIKoZIzj0EAwIDSAAwRQIhAOBE6A4CDIys
Zy73hIwRbmgbbBJV7bWXOX7fmfynRhIFAiBbo3gC2Ofc9DmREaCraaYsQzJKsp+R
BAgRycZtgfZMKg==
-----END CERTIFICATE-----
