Certificate:
    Data:
        Version: 1 (0x0)
        Serial Number: 4100 (0x1004)
        Signature Algorithm: ecdsa-with-SHA256
        Issuer: C=CH, ST=Geneva, O=WHO, OU=TNG_TLS, CN=WHO TNG_TLS CA
        Validity
            Not Before: Jun 27 19:07:32 2023 GMT
            Not After : Jul  6 19:07:32 2024 GMT
        Subject: C=BM, O=QuoVadis Limited, CN=QuoVadis Root CA 2 G3
        Subject Public Key Info:
            Public Key Algorithm: id-ecPublicKey
                Public-Key: (256 bit)
                pub:
                    04:f3:da:d6:58:8f:d8:5a:1e:41:e2:8b:75:d9:26:
                    8b:c0:cb:ea:02:63:ab:3d:fc:e1:22:7d:b3:e4:98:
                    43:e8:6e:b0:76:d0:1d:95:c4:1d:09:81:f2:0d:a0:
                    6e:59:4e:13:29:87:5c:9b:93:90:e1:d3:46:c8:43:
                    bf:8b:7a:2a:34
                ASN1 OID: prime256v1
                NIST CURVE: P-256
    Signature Algorithm: ecdsa-with-SHA256
    Signature Value:
        30:45:02:20:4c:9d:bf:f2:f1:3a:04:d2:0f:4e:fe:1a:46:40:
        b9:5d:32:b2:20:55:52:b3:ee:e3:36:5f:1a:4f:cb:ab:7e:40:
        02:21:00:9d:3c:97:90:4e:4e:a1:79:6c:c7:9c:a6:ed:37:a2:
        cb:ea:4f:12:e0:21:01:bd:44:d3:a1:b4:9a:14:2e:f2:79
-----BEGIN CERTIFICATE-----
MIIBiDCCAS4CAhAEMAoGCCqGSM49BAMCMFcxCzAJBgNVBAYTAkNIMQ8wDQYDVQQI
DAZHZW5ldmExDDAKBgNVBAoMA1dITzEQMA4GA1UECwwHVE5HX1RMUzEXMBUGA1UE
AwwOV0hPIFROR19UTFMgQ0EwHhcNMjMwNjI3MTkwNzMyWhcNMjQwNzA2MTkwNzMy
WjBIMQswCQYDVQQGEwJCTTEZMBcGA1UECgwQUXVvVmFkaXMgTGltaXRlZDEeMBwG
A1UEAwwVUXVvVmFkaXMgUm9vdCBDQSAyIEczMFkwEwYHKoZIzj0CAQYIKoZIzj0D
AQcDQgAE89rWWI/YWh5B4ot12SaLwMvqAmOrPfzhIn2z5JhD6G6wdtAdlcQdCYHy
DaBuWU4TKYdcm5OQ4dNGyEO/i3oqNDAKBggqhkjOPQQDAgNIADBFAiBMnb/y8ToE
0g9O/hpGQLldMrIgVVKz7uM2XxpPy6t+QAIhAJ08l5BOTqF5bMecpu03osvqTxLg
IQG9RNOhtJoULvJ5
-----END CERTIFICATE-----
