Certificate:
    Data:
        Version: 1 (0x0)
        Serial Number: 4098 (0x1002)
        Signature Algorithm: ecdsa-with-SHA256
        Issuer: C=CH, ST=Geneva, O=WHO, OU=TNG_TLS, CN=WHO TNG_TLS CA
        Validity
            Not Before: Jun 27 15:25:15 2023 GMT
            Not After : Jul  6 15:25:15 2024 GMT
        Subject: C=NL, ST=Zuid-Holland, L='s-Gravenhage, O=Ministerie van Volksgezondheid, Welzijn en Sport, CN=dgc-nb-digiclient.coronacheck.nl
        Subject Public Key Info:
            Public Key Algorithm: id-ecPublicKey
                Public-Key: (256 bit)
                pub:
                    04:f3:da:d6:58:8f:d8:5a:1e:41:e2:8b:75:d9:26:
                    8b:c0:cb:ea:02:63:ab:3d:fc:e1:22:7d:b3:e4:98:
                    43:e8:6e:b0:76:d0:1d:95:c4:1d:09:81:f2:0d:a0:
                    6e:59:4e:13:29:87:5c:9b:93:90:e1:d3:46:c8:43:
                    bf:8b:7a:2a:34
                ASN1 OID: prime256v1
                NIST CURVE: P-256
    Signature Algorithm: ecdsa-with-SHA256
    Signature Value:
        30:44:02:20:60:f9:67:30:0e:99:34:43:e3:e7:b8:d0:01:fd:
        e4:b3:d3:ef:27:26:c5:8d:f0:51:59:f9:af:38:45:d8:00:26:
        02:20:36:c0:4c:7b:af:d5:8d:9c:87:e9:15:15:5f:d7:56:57:
        94:f4:84:db:7f:4c:b1:01:79:e9:fb:5a:e0:00:66:c8
-----BEGIN CERTIFICATE-----
MIIB4jCCAYkCAhACMAoGCCqGSM49BAMCMFcxCzAJBgNVBAYTAkNIMQ8wDQYDVQQI
DAZHZW5ldmExDDAKBgNVBAoMA1dITzEQMA4GA1UECwwHVE5HX1RMUzEXMBUGA1UE
AwwOV0hPIFROR19UTFMgQ0EwHhcNMjMwNjI3MTUyNTE1WhcNMjQwNzA2MTUyNTE1
WjCBojELMAkGA1UEBhMCTkwxFTATBgNVBAgMDFp1aWQtSG9sbGFuZDEWMBQGA1UE
BwwNJ3MtR3JhdmVuaGFnZTE5MDcGA1UECgwwTWluaXN0ZXJpZSB2YW4gVm9sa3Nn
ZXpvbmRoZWlkLCBXZWx6aWpuIGVuIFNwb3J0MSkwJwYDVQQDDCBkZ2MtbmItZGln
aWNsaWVudC5jb3JvbmFjaGVjay5ubDBZMBMGByqGSM49AgEGCCqGSM49AwEHA0IA
BPPa1liP2FoeQeKLddkmi8DL6gJjqz384SJ9s+SYQ+husHbQHZXEHQmB8g2gbllO
EymHXJuTkOHTRshDv4t6KjQwCgYIKoZIzj0EAwIDRwAwRAIgYPlnMA6ZNEPj57jQ
Af3ks9PvJybFjfBRWfmvOEXYACYCIDbATHuv1Y2ch+kVFV/XVleU9ITbf0yxAXnp
+1rgAGbI
-----END CERTIFICATE-----
