Certificate:
    Data:
        Version: 1 (0x0)
        Serial Number: 4097 (0x1001)
        Signature Algorithm: ecdsa-with-SHA256
        Issuer: C=CH, ST=Geneva, O=WHO, OU=TNG_TLS, CN=WHO TNG_TLS CA
        Validity
            Not Before: Jun 27 15:25:15 2023 GMT
            Not After : Jul  6 15:25:15 2024 GMT
        Subject: C=IS, O=Directorate of Health, OU=National Centre for e-Health, CN=IS_DCC_AUTH_2023_TLS
        Subject Public Key Info:
            Public Key Algorithm: id-ecPublicKey
                Public-Key: (256 bit)
                pub:
                    04:f3:da:d6:58:8f:d8:5a:1e:41:e2:8b:75:d9:26:
                    8b:c0:cb:ea:02:63:ab:3d:fc:e1:22:7d:b3:e4:98:
                    43:e8:6e:b0:76:d0:1d:95:c4:1d:09:81:f2:0d:a0:
                    6e:59:4e:13:29:87:5c:9b:93:90:e1:d3:46:c8:43:
                    bf:8b:7a:2a:34
                ASN1 OID: prime256v1
                NIST CURVE: P-256
    Signature Algorithm: ecdsa-with-SHA256
    Signature Value:
        30:45:02:20:19:8f:4a:65:04:30:33:79:f7:e8:ff:6a:51:38:
        12:87:c2:1f:5e:52:28:61:07:c6:19:a2:5f:0d:cb:8e:7d:1e:
        02:21:00:e1:30:e1:d2:7e:ab:a3:77:ec:37:26:92:2c:b6:08:
        b6:30:52:ff:00:7b:40:ce:37:07:89:9c:a4:e2:9b:98:d8
-----BEGIN CERTIFICATE-----
MIIBszCCAVkCAhABMAoGCCqGSM49BAMCMFcxCzAJBgNVBAYTAkNIMQ8wDQYDVQQI
DAZHZW5ldmExDDAKBgNVBAoMA1dITzEQMA4GA1UECwwHVE5HX1RMUzEXMBUGA1UE
AwwOV0hPIFROR19UTFMgQ0EwHhcNMjMwNjI3MTUyNTE1WhcNMjQwNzA2MTUyNTE1
WjBzMQswCQYDVQQGEwJJUzEeMBwGA1UECgwVRGlyZWN0b3JhdGUgb2YgSGVhbHRo
MSUwIwYDVQQLDBxOYXRpb25hbCBDZW50cmUgZm9yIGUtSGVhbHRoMR0wGwYDVQQD
DBRJU19EQ0NfQVVUSF8yMDIzX1RMUzBZMBMGByqGSM49AgEGCCqGSM49AwEHA0IA
BPPa1liP2FoeQeKLddkmi8DL6gJjqz384SJ9s+SYQ+husHbQHZXEHQmB8g2gbllO
EymHXJuTkOHTRshDv4t6KjQwCgYIKoZIzj0EAwIDSAAwRQIgGY9KZQQwM3n36P9q
UTgSh8IfXlIoYQfGGaJfDcuOfR4CIQDhMOHSfqujd+w3JpIstgi2MFL/AHtAzjcH
iZyk4puY2A==
-----END CERTIFICATE-----
