Certificate:
    Data:
        Version: 1 (0x0)
        Serial Number: 4107 (0x100b)
        Signature Algorithm: ecdsa-with-SHA256
        Issuer: C=CH, ST=Geneva, O=WHO, OU=TNG_TA, CN=WHO TNG_TA CA
        Validity
            Not Before: Jun 28 11:06:12 2023 GMT
            Not After : Jul  7 11:06:12 2024 GMT
        Subject: C=FI, ST=Finland, L=Helsinki, O=Digi- ja vE4estF6tietovirasto, CN=prod.dgc.cloud.dvv.fi
        Subject Public Key Info:
            Public Key Algorithm: id-ecPublicKey
                Public-Key: (256 bit)
                pub:
                    04:4d:be:55:4f:c6:7a:51:0e:82:12:e1:77:83:4b:
                    8f:e5:11:cf:03:ab:6d:9c:1f:db:d8:f9:5e:fd:85:
                    42:c8:09:91:58:9c:4c:95:0a:46:ec:05:57:03:c4:
                    6a:a0:4b:69:a4:04:30:eb:d1:e7:e0:da:2a:d0:ac:
                    83:9d:52:46:ed
                ASN1 OID: prime256v1
                NIST CURVE: P-256
    Signature Algorithm: ecdsa-with-SHA256
    Signature Value:
        30:46:02:21:00:fa:30:b7:70:50:3d:fc:3e:b0:99:a1:7c:80:
        69:94:0a:1c:a6:d7:2e:bd:f9:c2:61:93:ae:20:3f:f0:7e:1c:
        33:02:21:00:d6:f6:68:d6:78:10:ae:91:cb:38:50:85:88:90:
        55:07:22:9d:90:b6:ee:fc:33:d9:29:64:00:25:49:2a:8a:7a
-----BEGIN CERTIFICATE-----
MIIBuTCCAV4CAhALMAoGCCqGSM49BAMCMFUxCzAJBgNVBAYTAkNIMQ8wDQYDVQQI
DAZHZW5ldmExDDAKBgNVBAoMA1dITzEPMA0GA1UECwwGVE5HX1RBMRYwFAYDVQQD
DA1XSE8gVE5HX1RBIENBMB4XDTIzMDYyODExMDYxMloXDTI0MDcwNzExMDYxMlow
ejELMAkGA1UEBhMCRkkxEDAOBgNVBAgMB0ZpbmxhbmQxETAPBgNVBAcMCEhlbHNp
bmtpMSYwJAYDVQQKDB1EaWdpLSBqYSB2RTRlc3RGNnRpZXRvdmlyYXN0bzEeMBwG
A1UEAwwVcHJvZC5kZ2MuY2xvdWQuZHZ2LmZpMFkwEwYHKoZIzj0CAQYIKoZIzj0D
AQcDQgAETb5VT8Z6UQ6CEuF3g0uP5RHPA6ttnB/b2Ple/YVCyAmRWJxMlQpG7AVX
A8RqoEtppAQw69Hn4Noq0KyDnVJG7TAKBggqhkjOPQQDAgNJADBGAiEA+jC3cFA9
/D6wmaF8gGmUChym1y69+cJhk64gP/B+HDMCIQDW9mjWeBCukcs4UIWIkFUHIp2Q
tu78M9kpZAAlSSqKeg==
-----END CERTIFICATE-----
