Certificate:
    Data:
        Version: 1 (0x0)
        Serial Number: 4116 (0x1014)
        Signature Algorithm: ecdsa-with-SHA256
        Issuer: C=CH, ST=Geneva, O=WHO, OU=TNG_TA, CN=WHO TNG_TA CA
        Validity
            Not Before: Jul 20 09:52:01 2023 GMT
            Not After : Jul 29 09:52:01 2024 GMT
        Subject: C=FI, ST=Finland, L=Helsinki, O=Digi- ja vE4estF6tietovirasto, CN=prod.dgc.cloud.dvv.fi
        Subject Public Key Info:
            Public Key Algorithm: id-ecPublicKey
                Public-Key: (256 bit)
                pub:
                    04:4d:be:55:4f:c6:7a:51:0e:82:12:e1:77:83:4b:
                    8f:e5:11:cf:03:ab:6d:9c:1f:db:d8:f9:5e:fd:85:
                    42:c8:09:91:58:9c:4c:95:0a:46:ec:05:57:03:c4:
                    6a:a0:4b:69:a4:04:30:eb:d1:e7:e0:da:2a:d0:ac:
                    83:9d:52:46:ed
                ASN1 OID: prime256v1
                NIST CURVE: P-256
    Signature Algorithm: ecdsa-with-SHA256
    Signature Value:
        30:45:02:21:00:b4:a8:5e:af:89:ec:f6:e1:2c:d2:d8:85:e5:
        5f:86:dd:4f:3a:1b:17:99:85:66:84:ff:92:8e:5c:76:2a:70:
        42:02:20:79:16:1d:67:26:b7:2e:fd:8c:5f:ee:b4:02:21:5b:
        77:87:e5:92:76:24:83:eb:55:8a:57:63:b5:a8:53:c2:19
-----BEGIN CERTIFICATE-----
MIIBuDCCAV4CAhAUMAoGCCqGSM49BAMCMFUxCzAJBgNVBAYTAkNIMQ8wDQYDVQQI
DAZHZW5ldmExDDAKBgNVBAoMA1dITzEPMA0GA1UECwwGVE5HX1RBMRYwFAYDVQQD
DA1XSE8gVE5HX1RBIENBMB4XDTIzMDcyMDA5NTIwMVoXDTI0MDcyOTA5NTIwMVow
ejELMAkGA1UEBhMCRkkxEDAOBgNVBAgMB0ZpbmxhbmQxETAPBgNVBAcMCEhlbHNp
bmtpMSYwJAYDVQQKDB1EaWdpLSBqYSB2RTRlc3RGNnRpZXRvdmlyYXN0bzEeMBwG
A1UEAwwVcHJvZC5kZ2MuY2xvdWQuZHZ2LmZpMFkwEwYHKoZIzj0CAQYIKoZIzj0D
AQcDQgAETb5VT8Z6UQ6CEuF3g0uP5RHPA6ttnB/b2Ple/YVCyAmRWJxMlQpG7AVX
A8RqoEtppAQw69Hn4Noq0KyDnVJG7TAKBggqhkjOPQQDAgNIADBFAiEAtKher4ns
9uEs0tiF5V+G3U86GxeZhWaE/5KOXHYqcEICIHkWHWcmty79jF/utAIhW3eH5ZJ2
JIPrVYpXY7WoU8IZ
-----END CERTIFICATE-----
