Certificate:
    Data:
        Version: 1 (0x0)
        Serial Number: 4096 (0x1000)
        Signature Algorithm: ecdsa-with-SHA256
        Issuer: C=CH, ST=Geneva, O=WHO, OU=TNG_TLS, CN=WHO TNG_TLS CA
        Validity
            Not Before: Jun 27 15:25:15 2023 GMT
            Not After : Jul  6 15:25:15 2024 GMT
        Subject: C=FI, ST=Finland, L=Helsinki, O=Digi- ja vE4estF6tietovirasto, CN=prod.dgc.cloud.dvv.fi
        Subject Public Key Info:
            Public Key Algorithm: id-ecPublicKey
                Public-Key: (256 bit)
                pub:
                    04:f3:da:d6:58:8f:d8:5a:1e:41:e2:8b:75:d9:26:
                    8b:c0:cb:ea:02:63:ab:3d:fc:e1:22:7d:b3:e4:98:
                    43:e8:6e:b0:76:d0:1d:95:c4:1d:09:81:f2:0d:a0:
                    6e:59:4e:13:29:87:5c:9b:93:90:e1:d3:46:c8:43:
                    bf:8b:7a:2a:34
                ASN1 OID: prime256v1
                NIST CURVE: P-256
    Signature Algorithm: ecdsa-with-SHA256
    Signature Value:
        30:45:02:20:28:91:c4:cd:d5:1d:4a:c8:f7:a8:64:30:ae:30:
        25:cf:01:ea:25:16:47:ce:65:f8:21:20:24:29:3d:8a:77:d5:
        02:21:00:91:8c:b1:27:b9:7e:36:66:a7:d0:03:b8:b3:a9:db:
        19:e1:5b:b7:85:55:66:d4:a2:c9:01:df:f2:51:36:fa:cc
-----BEGIN CERTIFICATE-----
MIIBujCCAWACAhAAMAoGCCqGSM49BAMCMFcxCzAJBgNVBAYTAkNIMQ8wDQYDVQQI
DAZHZW5ldmExDDAKBgNVBAoMA1dITzEQMA4GA1UECwwHVE5HX1RMUzEXMBUGA1UE
AwwOV0hPIFROR19UTFMgQ0EwHhcNMjMwNjI3MTUyNTE1WhcNMjQwNzA2MTUyNTE1
WjB6MQswCQYDVQQGEwJGSTEQMA4GA1UECAwHRmlubGFuZDERMA8GA1UEBwwISGVs
c2lua2kxJjAkBgNVBAoMHURpZ2ktIGphIHZFNGVzdEY2dGlldG92aXJhc3RvMR4w
HAYDVQQDDBVwcm9kLmRnYy5jbG91ZC5kdnYuZmkwWTATBgcqhkjOPQIBBggqhkjO
PQMBBwNCAATz2tZYj9haHkHii3XZJovAy+oCY6s9/OEifbPkmEPobrB20B2VxB0J
gfINoG5ZThMph1ybk5Dh00bIQ7+Leio0MAoGCCqGSM49BAMCA0gAMEUCICiRxM3V
HUrI96hkMK4wJc8B6iUWR85l+CEgJCk9infVAiEAkYyxJ7l+Nman0AO4s6nbGeFb
t4VVZtSiyQHf8lE2+sw=
-----END CERTIFICATE-----
