Certificate:
    Data:
        Version: 1 (0x0)
        Serial Number: 4111 (0x100f)
        Signature Algorithm: ecdsa-with-SHA256
        Issuer: C=CH, ST=Geneva, O=WHO, OU=TNG_TA, CN=WHO TNG_TA CA
        Validity
            Not Before: Jun 28 11:06:12 2023 GMT
            Not After : Jul  7 11:06:12 2024 GMT
        Subject: C=NL, ST=Zuid-Holland, L='s-Gravenhage, O=Ministerie van Volksgezondheid, Welzijn en Sport, CN=eu-cms-sign.coronacheck.nl
        Subject Public Key Info:
            Public Key Algorithm: id-ecPublicKey
                Public-Key: (256 bit)
                pub:
                    04:4d:be:55:4f:c6:7a:51:0e:82:12:e1:77:83:4b:
                    8f:e5:11:cf:03:ab:6d:9c:1f:db:d8:f9:5e:fd:85:
                    42:c8:09:91:58:9c:4c:95:0a:46:ec:05:57:03:c4:
                    6a:a0:4b:69:a4:04:30:eb:d1:e7:e0:da:2a:d0:ac:
                    83:9d:52:46:ed
                ASN1 OID: prime256v1
                NIST CURVE: P-256
    Signature Algorithm: ecdsa-with-SHA256
    Signature Value:
        30:45:02:20:2d:4e:06:1d:64:34:f9:6f:a6:e6:fc:8a:e1:28:
        8f:68:f5:c4:2d:fc:a3:65:40:37:cb:5b:69:89:3b:45:d4:b9:
        02:21:00:96:64:d9:ff:1f:a1:bb:9b:80:52:48:ae:a3:bd:a7:
        a6:eb:79:6e:61:68:7d:1a:5a:84:78:b2:25:22:37:d3:e5
-----BEGIN CERTIFICATE-----
MIIB2zCCAYECAhAPMAoGCCqGSM49BAMCMFUxCzAJBgNVBAYTAkNIMQ8wDQYDVQQI
DAZHZW5ldmExDDAKBgNVBAoMA1dITzEPMA0GA1UECwwGVE5HX1RBMRYwFAYDVQQD
DA1XSE8gVE5HX1RBIENBMB4XDTIzMDYyODExMDYxMloXDTI0MDcwNzExMDYxMlow
gZwxCzAJBgNVBAYTAk5MMRUwEwYDVQQIDAxadWlkLUhvbGxhbmQxFjAUBgNVBAcM
DSdzLUdyYXZlbmhhZ2UxOTA3BgNVBAoMME1pbmlzdGVyaWUgdmFuIFZvbGtzZ2V6
b25kaGVpZCwgV2VsemlqbiBlbiBTcG9ydDEjMCEGA1UEAwwaZXUtY21zLXNpZ24u
Y29yb25hY2hlY2submwwWTATBgcqhkjOPQIBBggqhkjOPQMBBwNCAARNvlVPxnpR
DoIS4XeDS4/lEc8Dq22cH9vY+V79hULICZFYnEyVCkbsBVcDxGqgS2mkBDDr0efg
2irQrIOdUkbtMAoGCCqGSM49BAMCA0gAMEUCIC1OBh1kNPlvpub8iuEoj2j1xC38
o2VAN8tbaYk7RdS5AiEAlmTZ/x+hu5uAUkiuo72nput5bmFofRpahHiyJSI30+U=
-----END CERTIFICATE-----
