Certificate:
    Data:
        Version: 1 (0x0)
        Serial Number: 4115 (0x1013)
        Signature Algorithm: ecdsa-with-SHA256
        Issuer: C=CH, ST=Geneva, O=WHO, OU=TNG_TA, CN=WHO TNG_TA CA
        Validity
            Not Before: Jul 20 09:52:01 2023 GMT
            Not After : Jul 29 09:52:01 2024 GMT
        Subject: C=FI, ST=Finland, L=Helsinki, O=Digi- ja vE4estF6tietovirasto, CN=prod.dgc.cloud.dvv.fi
        Subject Public Key Info:
            Public Key Algorithm: id-ecPublicKey
                Public-Key: (256 bit)
                pub:
                    04:4d:be:55:4f:c6:7a:51:0e:82:12:e1:77:83:4b:
                    8f:e5:11:cf:03:ab:6d:9c:1f:db:d8:f9:5e:fd:85:
                    42:c8:09:91:58:9c:4c:95:0a:46:ec:05:57:03:c4:
                    6a:a0:4b:69:a4:04:30:eb:d1:e7:e0:da:2a:d0:ac:
                    83:9d:52:46:ed
                ASN1 OID: prime256v1
                NIST CURVE: P-256
    Signature Algorithm: ecdsa-with-SHA256
    Signature Value:
        30:45:02:20:5d:9e:5f:05:5a:f8:24:b5:80:18:df:2c:22:c9:
        7a:03:c0:04:fe:d8:d1:cd:40:49:12:34:50:d4:00:e1:cc:66:
        02:21:00:9b:07:8b:db:28:73:b6:9e:15:aa:b6:1a:34:4c:ab:
        c5:62:e0:85:3c:13:75:ba:75:c6:1a:5c:bc:28:33:2c:27
-----BEGIN CERTIFICATE-----
MIIBuDCCAV4CAhATMAoGCCqGSM49BAMCMFUxCzAJBgNVBAYTAkNIMQ8wDQYDVQQI
DAZHZW5ldmExDDAKBgNVBAoMA1dITzEPMA0GA1UECwwGVE5HX1RBMRYwFAYDVQQD
DA1XSE8gVE5HX1RBIENBMB4XDTIzMDcyMDA5NTIwMVoXDTI0MDcyOTA5NTIwMVow
ejELMAkGA1UEBhMCRkkxEDAOBgNVBAgMB0ZpbmxhbmQxETAPBgNVBAcMCEhlbHNp
bmtpMSYwJAYDVQQKDB1EaWdpLSBqYSB2RTRlc3RGNnRpZXRvdmlyYXN0bzEeMBwG
A1UEAwwVcHJvZC5kZ2MuY2xvdWQuZHZ2LmZpMFkwEwYHKoZIzj0CAQYIKoZIzj0D
AQcDQgAETb5VT8Z6UQ6CEuF3g0uP5RHPA6ttnB/b2Ple/YVCyAmRWJxMlQpG7AVX
A8RqoEtppAQw69Hn4Noq0KyDnVJG7TAKBggqhkjOPQQDAgNIADBFAiBdnl8FWvgk
tYAY3ywiyXoDwAT+2NHNQEkSNFDUAOHMZgIhAJsHi9soc7aeFaq2GjRMq8Vi4IU8
E3W6dcYaXLwoMywn
-----END CERTIFICATE-----
