Certificate:
    Data:
        Version: 1 (0x0)
        Serial Number: 4099 (0x1003)
        Signature Algorithm: ecdsa-with-SHA256
        Issuer: C=CH, ST=Geneva, O=WHO, OU=TNG_TLS, CN=WHO TNG_TLS CA
        Validity
            Not Before: Jun 27 19:07:32 2023 GMT
            Not After : Jul  6 19:07:32 2024 GMT
        Subject: C=FI, O=Digi- ja vaestotietovirasto CA, OU=Certification Authority Services, OU=Varmennepalvelut, CN=DVV Gov. Root CA - G3 ECC
        Subject Public Key Info:
            Public Key Algorithm: id-ecPublicKey
                Public-Key: (256 bit)
                pub:
                    04:f3:da:d6:58:8f:d8:5a:1e:41:e2:8b:75:d9:26:
                    8b:c0:cb:ea:02:63:ab:3d:fc:e1:22:7d:b3:e4:98:
                    43:e8:6e:b0:76:d0:1d:95:c4:1d:09:81:f2:0d:a0:
                    6e:59:4e:13:29:87:5c:9b:93:90:e1:d3:46:c8:43:
                    bf:8b:7a:2a:34
                ASN1 OID: prime256v1
                NIST CURVE: P-256
    Signature Algorithm: ecdsa-with-SHA256
    Signature Value:
        30:46:02:21:00:ca:89:c0:f9:ac:da:1a:28:65:31:c7:c6:95:
        c0:3a:c7:1c:7e:6f:80:c5:4e:e0:35:4e:1a:90:c1:61:ee:ae:
        32:02:21:00:ca:46:0e:d1:9d:b9:d0:58:b0:51:b5:d4:d4:cb:
        01:a5:4a:0b:57:af:ed:7a:95:cd:c8:39:50:95:88:51:f5:cf
-----BEGIN CERTIFICATE-----
MIIB4jCCAYcCAhADMAoGCCqGSM49BAMCMFcxCzAJBgNVBAYTAkNIMQ8wDQYDVQQI
DAZHZW5ldmExDDAKBgNVBAoMA1dITzEQMA4GA1UECwwHVE5HX1RMUzEXMBUGA1UE
AwwOV0hPIFROR19UTFMgQ0EwHhcNMjMwNjI3MTkwNzMyWhcNMjQwNzA2MTkwNzMy
WjCBoDELMAkGA1UEBhMCRkkxJzAlBgNVBAoMHkRpZ2ktIGphIHZhZXN0b3RpZXRv
dmlyYXN0byBDQTEpMCcGA1UECwwgQ2VydGlmaWNhdGlvbiBBdXRob3JpdHkgU2Vy
dmljZXMxGTAXBgNVBAsMEFZhcm1lbm5lcGFsdmVsdXQxIjAgBgNVBAMMGURWViBH
b3YuIFJvb3QgQ0EgLSBHMyBFQ0MwWTATBgcqhkjOPQIBBggqhkjOPQMBBwNCAATz
2tZYj9haHkHii3XZJovAy+oCY6s9/OEifbPkmEPobrB20B2VxB0JgfINoG5ZThMp
h1ybk5Dh00bIQ7+Leio0MAoGCCqGSM49BAMCA0kAMEYCIQDKicD5rNoaKGUxx8aV
wDrHHH5vgMVO4DVOGpDBYe6uMgIhAMpGDtGdudBYsFG11NTLAaVKC1ev7XqVzcg5
UJWIUfXP
-----END CERTIFICATE-----
