Certificate:
    Data:
        Version: 1 (0x0)
        Serial Number: 4113 (0x1011)
        Signature Algorithm: ecdsa-with-SHA256
        Issuer: C=CH, ST=Geneva, O=WHO, OU=TNG_TA, CN=WHO TNG_TA CA
        Validity
            Not Before: Jul 20 09:52:01 2023 GMT
            Not After : Jul 29 09:52:01 2024 GMT
        Subject: C=FI, O=Digi- ja vaestotietovirasto CA, OU=Sosiaali- ja terveydenhuollon palveluvarmenteet, CN=DVV Social Welfare and Healthcare Service Certificates - G3E
        Subject Public Key Info:
            Public Key Algorithm: id-ecPublicKey
                Public-Key: (256 bit)
                pub:
                    04:4d:be:55:4f:c6:7a:51:0e:82:12:e1:77:83:4b:
                    8f:e5:11:cf:03:ab:6d:9c:1f:db:d8:f9:5e:fd:85:
                    42:c8:09:91:58:9c:4c:95:0a:46:ec:05:57:03:c4:
                    6a:a0:4b:69:a4:04:30:eb:d1:e7:e0:da:2a:d0:ac:
                    83:9d:52:46:ed
                ASN1 OID: prime256v1
                NIST CURVE: P-256
    Signature Algorithm: ecdsa-with-SHA256
    Signature Value:
        30:44:02:20:54:35:26:ca:12:5c:38:84:18:7f:6c:cf:e5:dd:
        27:a3:e0:ea:f4:78:5d:09:99:1b:da:02:e6:be:7c:32:3b:56:
        02:20:16:46:01:23:7f:a3:80:7e:8a:73:73:98:d6:7f:5c:05:
        2d:f2:cc:2e:2f:93:cf:b0:e1:23:f8:1e:fa:94:06:2a
-----BEGIN CERTIFICATE-----
MIIB9TCCAZwCAhARMAoGCCqGSM49BAMCMFUxCzAJBgNVBAYTAkNIMQ8wDQYDVQQI
DAZHZW5ldmExDDAKBgNVBAoMA1dITzEPMA0GA1UECwwGVE5HX1RBMRYwFAYDVQQD
DA1XSE8gVE5HX1RBIENBMB4XDTIzMDcyMDA5NTIwMVoXDTI0MDcyOTA5NTIwMVow
gbcxCzAJBgNVBAYTAkZJMScwJQYDVQQKDB5EaWdpLSBqYSB2YWVzdG90aWV0b3Zp
cmFzdG8gQ0ExODA2BgNVBAsML1Nvc2lhYWxpLSBqYSB0ZXJ2ZXlkZW5odW9sbG9u
IHBhbHZlbHV2YXJtZW50ZWV0MUUwQwYDVQQDDDxEVlYgU29jaWFsIFdlbGZhcmUg
YW5kIEhlYWx0aGNhcmUgU2VydmljZSBDZXJ0aWZpY2F0ZXMgLSBHM0UwWTATBgcq
hkjOPQIBBggqhkjOPQMBBwNCAARNvlVPxnpRDoIS4XeDS4/lEc8Dq22cH9vY+V79
hULICZFYnEyVCkbsBVcDxGqgS2mkBDDr0efg2irQrIOdUkbtMAoGCCqGSM49BAMC
A0cAMEQCIFQ1JsoSXDiEGH9sz+XdJ6Pg6vR4XQmZG9oC5r58MjtWAiAWRgEjf6OA
fopzc5jWf1wFLfLMLi+Tz7DhI/ge+pQGKg==
-----END CERTIFICATE-----
