Certificate:
    Data:
        Version: 1 (0x0)
        Serial Number: 4112 (0x1010)
        Signature Algorithm: ecdsa-with-SHA256
        Issuer: C=CH, ST=Geneva, O=WHO, OU=TNG_TA, CN=WHO TNG_TA CA
        Validity
            Not Before: Jul 20 09:52:01 2023 GMT
            Not After : Jul 29 09:52:01 2024 GMT
        Subject: C=FI, O=Vaestorekisterikeskus CA, OU=Sosiaali- ja terveydenhuollon palveluvarmenteet, CN=VRK CA for Social Welfare and Health Care Service Providers
        Subject Public Key Info:
            Public Key Algorithm: id-ecPublicKey
                Public-Key: (256 bit)
                pub:
                    04:4d:be:55:4f:c6:7a:51:0e:82:12:e1:77:83:4b:
                    8f:e5:11:cf:03:ab:6d:9c:1f:db:d8:f9:5e:fd:85:
                    42:c8:09:91:58:9c:4c:95:0a:46:ec:05:57:03:c4:
                    6a:a0:4b:69:a4:04:30:eb:d1:e7:e0:da:2a:d0:ac:
                    83:9d:52:46:ed
                ASN1 OID: prime256v1
                NIST CURVE: P-256
    Signature Algorithm: ecdsa-with-SHA256
    Signature Value:
        30:45:02:20:77:c8:c3:6b:5b:6d:29:d5:b5:5c:da:a9:39:81:
        a8:9a:2f:a3:38:92:94:63:89:23:b3:8f:35:63:cd:c1:ed:10:
        02:21:00:bf:eb:f6:fb:6b:a1:3c:7a:53:b0:89:d1:b6:72:a1:
        21:e6:7e:12:2f:df:31:41:6d:6a:f7:8b:03:7b:d8:76:63
-----BEGIN CERTIFICATE-----
MIIB7zCCAZUCAhAQMAoGCCqGSM49BAMCMFUxCzAJBgNVBAYTAkNIMQ8wDQYDVQQI
DAZHZW5ldmExDDAKBgNVBAoMA1dITzEPMA0GA1UECwwGVE5HX1RBMRYwFAYDVQQD
DA1XSE8gVE5HX1RBIENBMB4XDTIzMDcyMDA5NTIwMVoXDTI0MDcyOTA5NTIwMVow
gbAxCzAJBgNVBAYTAkZJMSEwHwYDVQQKDBhWYWVzdG9yZWtpc3RlcmlrZXNrdXMg
Q0ExODA2BgNVBAsML1Nvc2lhYWxpLSBqYSB0ZXJ2ZXlkZW5odW9sbG9uIHBhbHZl
bHV2YXJtZW50ZWV0MUQwQgYDVQQDDDtWUksgQ0EgZm9yIFNvY2lhbCBXZWxmYXJl
IGFuZCBIZWFsdGggQ2FyZSBTZXJ2aWNlIFByb3ZpZGVyczBZMBMGByqGSM49AgEG
CCqGSM49AwEHA0IABE2+VU/GelEOghLhd4NLj+URzwOrbZwf29j5Xv2FQsgJkVic
TJUKRuwFVwPEaqBLaaQEMOvR5+DaKtCsg51SRu0wCgYIKoZIzj0EAwIDSAAwRQIg
d8jDa1ttKdW1XNqpOYGomi+jOJKUY4kjs481Y83B7RACIQC/6/b7a6E8elOwidG2
cqEh5n4SL98xQW1q94sDe9h2Yw==
-----END CERTIFICATE-----
