Certificate:
    Data:
        Version: 1 (0x0)
        Serial Number: 4106 (0x100a)
        Signature Algorithm: ecdsa-with-SHA256
        Issuer: C=CH, ST=Geneva, O=WHO, OU=TNG_TA, CN=WHO TNG_TA CA
        Validity
            Not Before: Jun 28 11:06:12 2023 GMT
            Not After : Jul  7 11:06:12 2024 GMT
        Subject: C=FI, O=Digi- ja vaestotietovirasto CA, OU=Sosiaali- ja terveydenhuollon palveluvarmenteet, CN=DVV Social Welfare and Healthcare Service Certificates - G3E
        Subject Public Key Info:
            Public Key Algorithm: id-ecPublicKey
                Public-Key: (256 bit)
                pub:
                    04:4d:be:55:4f:c6:7a:51:0e:82:12:e1:77:83:4b:
                    8f:e5:11:cf:03:ab:6d:9c:1f:db:d8:f9:5e:fd:85:
                    42:c8:09:91:58:9c:4c:95:0a:46:ec:05:57:03:c4:
                    6a:a0:4b:69:a4:04:30:eb:d1:e7:e0:da:2a:d0:ac:
                    83:9d:52:46:ed
                ASN1 OID: prime256v1
                NIST CURVE: P-256
    Signature Algorithm: ecdsa-with-SHA256
    Signature Value:
        30:46:02:21:00:9a:a0:28:a5:bd:cf:08:10:da:81:87:79:ef:
        2e:d4:0c:82:df:f1:a5:3a:5f:56:eb:f7:4c:fd:20:1e:ea:4b:
        b2:02:21:00:96:6f:0b:19:dc:23:bb:42:24:f8:f5:c8:9b:a4:
        73:7d:a9:bb:ab:f2:d2:42:8b:d2:0b:be:06:8b:d9:d0:cc:06
-----BEGIN CERTIFICATE-----
MIIB9zCCAZwCAhAKMAoGCCqGSM49BAMCMFUxCzAJBgNVBAYTAkNIMQ8wDQYDVQQI
DAZHZW5ldmExDDAKBgNVBAoMA1dITzEPMA0GA1UECwwGVE5HX1RBMRYwFAYDVQQD
DA1XSE8gVE5HX1RBIENBMB4XDTIzMDYyODExMDYxMloXDTI0MDcwNzExMDYxMlow
gbcxCzAJBgNVBAYTAkZJMScwJQYDVQQKDB5EaWdpLSBqYSB2YWVzdG90aWV0b3Zp
cmFzdG8gQ0ExODA2BgNVBAsML1Nvc2lhYWxpLSBqYSB0ZXJ2ZXlkZW5odW9sbG9u
IHBhbHZlbHV2YXJtZW50ZWV0MUUwQwYDVQQDDDxEVlYgU29jaWFsIFdlbGZhcmUg
YW5kIEhlYWx0aGNhcmUgU2VydmljZSBDZXJ0aWZpY2F0ZXMgLSBHM0UwWTATBgcq
hkjOPQIBBggqhkjOPQMBBwNCAARNvlVPxnpRDoIS4XeDS4/lEc8Dq22cH9vY+V79
hULICZFYnEyVCkbsBVcDxGqgS2mkBDDr0efg2irQrIOdUkbtMAoGCCqGSM49BAMC
A0kAMEYCIQCaoCilvc8IENqBh3nvLtQMgt/xpTpfVuv3TP0gHupLsgIhAJZvCxnc
I7tCJPj1yJukc32pu6vy0kKL0gu+BovZ0MwG
-----END CERTIFICATE-----
