Certificate:
    Data:
        Version: 1 (0x0)
        Serial Number: 4098 (0x1002)
        Signature Algorithm: ecdsa-with-SHA256
        Issuer: C=CH, ST=Geneva, O=WHO, OU=TNG_TA, CN=WHO TNG_TA CA
        Validity
            Not Before: Jun 27 19:07:31 2023 GMT
            Not After : Jul  6 19:07:31 2024 GMT
        Subject: C=FI, O=Digi- ja vaestotietovirasto CA, OU=Sosiaali- ja terveydenhuollon palveluvarmenteet, CN=DVV Social Welfare and Healthcare Service Certificates - G3E
        Subject Public Key Info:
            Public Key Algorithm: id-ecPublicKey
                Public-Key: (256 bit)
                pub:
                    04:4d:be:55:4f:c6:7a:51:0e:82:12:e1:77:83:4b:
                    8f:e5:11:cf:03:ab:6d:9c:1f:db:d8:f9:5e:fd:85:
                    42:c8:09:91:58:9c:4c:95:0a:46:ec:05:57:03:c4:
                    6a:a0:4b:69:a4:04:30:eb:d1:e7:e0:da:2a:d0:ac:
                    83:9d:52:46:ed
                ASN1 OID: prime256v1
                NIST CURVE: P-256
    Signature Algorithm: ecdsa-with-SHA256
    Signature Value:
        30:45:02:21:00:de:dc:f6:4a:70:3a:da:20:75:a8:d3:ba:9d:
        53:c6:28:83:ed:20:fb:cc:c9:52:33:b9:6d:c0:2e:61:64:11:
        01:02:20:12:a8:f2:78:63:ce:3c:95:13:7c:bb:84:4f:55:97:
        30:d3:1b:e7:21:69:69:59:44:90:cb:0a:d4:fb:c3:86:d8
-----BEGIN CERTIFICATE-----
MIIB9jCCAZwCAhACMAoGCCqGSM49BAMCMFUxCzAJBgNVBAYTAkNIMQ8wDQYDVQQI
DAZHZW5ldmExDDAKBgNVBAoMA1dITzEPMA0GA1UECwwGVE5HX1RBMRYwFAYDVQQD
DA1XSE8gVE5HX1RBIENBMB4XDTIzMDYyNzE5MDczMVoXDTI0MDcwNjE5MDczMVow
gbcxCzAJBgNVBAYTAkZJMScwJQYDVQQKDB5EaWdpLSBqYSB2YWVzdG90aWV0b3Zp
cmFzdG8gQ0ExODA2BgNVBAsML1Nvc2lhYWxpLSBqYSB0ZXJ2ZXlkZW5odW9sbG9u
IHBhbHZlbHV2YXJtZW50ZWV0MUUwQwYDVQQDDDxEVlYgU29jaWFsIFdlbGZhcmUg
YW5kIEhlYWx0aGNhcmUgU2VydmljZSBDZXJ0aWZpY2F0ZXMgLSBHM0UwWTATBgcq
hkjOPQIBBggqhkjOPQMBBwNCAARNvlVPxnpRDoIS4XeDS4/lEc8Dq22cH9vY+V79
hULICZFYnEyVCkbsBVcDxGqgS2mkBDDr0efg2irQrIOdUkbtMAoGCCqGSM49BAMC
A0gAMEUCIQDe3PZKcDraIHWo07qdU8Yog+0g+8zJUjO5bcAuYWQRAQIgEqjyeGPO
PJUTfLuET1WXMNMb5yFpaVlEkMsK1PvDhtg=
-----END CERTIFICATE-----
