Certificate:
    Data:
        Version: 1 (0x0)
        Serial Number: 4097 (0x1001)
        Signature Algorithm: ecdsa-with-SHA256
        Issuer: C=CH, ST=Geneva, O=WHO, OU=TNG_TA, CN=WHO TNG_TA CA
        Validity
            Not Before: Jun 27 19:07:31 2023 GMT
            Not After : Jul  6 19:07:31 2024 GMT
        Subject: C=FI, O=Vaestorekisterikeskus CA, OU=Sosiaali- ja terveydenhuollon palveluvarmenteet, CN=VRK CA for Social Welfare and Health Care Service Providers
        Subject Public Key Info:
            Public Key Algorithm: id-ecPublicKey
                Public-Key: (256 bit)
                pub:
                    04:4d:be:55:4f:c6:7a:51:0e:82:12:e1:77:83:4b:
                    8f:e5:11:cf:03:ab:6d:9c:1f:db:d8:f9:5e:fd:85:
                    42:c8:09:91:58:9c:4c:95:0a:46:ec:05:57:03:c4:
                    6a:a0:4b:69:a4:04:30:eb:d1:e7:e0:da:2a:d0:ac:
                    83:9d:52:46:ed
                ASN1 OID: prime256v1
                NIST CURVE: P-256
    Signature Algorithm: ecdsa-with-SHA256
    Signature Value:
        30:46:02:21:00:83:2b:11:b1:17:c6:bf:f9:54:39:a2:c9:ca:
        a3:46:2d:d1:6d:4e:b6:bb:af:24:61:31:3f:22:6a:06:8b:ea:
        f5:02:21:00:f7:9e:19:b7:0b:21:96:84:c1:0b:f0:6a:24:c4:
        55:98:1c:a5:72:bc:d7:9a:28:14:a1:85:d5:d7:41:7a:a1:2c
-----BEGIN CERTIFICATE-----
MIIB8DCCAZUCAhABMAoGCCqGSM49BAMCMFUxCzAJBgNVBAYTAkNIMQ8wDQYDVQQI
DAZHZW5ldmExDDAKBgNVBAoMA1dITzEPMA0GA1UECwwGVE5HX1RBMRYwFAYDVQQD
DA1XSE8gVE5HX1RBIENBMB4XDTIzMDYyNzE5MDczMVoXDTI0MDcwNjE5MDczMVow
gbAxCzAJBgNVBAYTAkZJMSEwHwYDVQQKDBhWYWVzdG9yZWtpc3RlcmlrZXNrdXMg
Q0ExODA2BgNVBAsML1Nvc2lhYWxpLSBqYSB0ZXJ2ZXlkZW5odW9sbG9uIHBhbHZl
bHV2YXJtZW50ZWV0MUQwQgYDVQQDDDtWUksgQ0EgZm9yIFNvY2lhbCBXZWxmYXJl
IGFuZCBIZWFsdGggQ2FyZSBTZXJ2aWNlIFByb3ZpZGVyczBZMBMGByqGSM49AgEG
CCqGSM49AwEHA0IABE2+VU/GelEOghLhd4NLj+URzwOrbZwf29j5Xv2FQsgJkVic
TJUKRuwFVwPEaqBLaaQEMOvR5+DaKtCsg51SRu0wCgYIKoZIzj0EAwIDSQAwRgIh
AIMrEbEXxr/5VDmiycqjRi3RbU62u68kYTE/ImoGi+r1AiEA954ZtwshloTBC/Bq
JMRVmBylcrzXmigUoYXV10F6oSw=
-----END CERTIFICATE-----
