Certificate:
    Data:
        Version: 1 (0x0)
        Serial Number: 4099 (0x1003)
        Signature Algorithm: ecdsa-with-SHA256
        Issuer: C=CH, ST=Geneva, O=WHO, OU=TNG_TA, CN=WHO TNG_TA CA
        Validity
            Not Before: Jun 27 19:07:32 2023 GMT
            Not After : Jul  6 19:07:32 2024 GMT
        Subject: C=IS, O=Directorate of Health, OU=Directorate of Health, CN=IS DGC CSCA 1
        Subject Public Key Info:
            Public Key Algorithm: id-ecPublicKey
                Public-Key: (256 bit)
                pub:
                    04:4d:be:55:4f:c6:7a:51:0e:82:12:e1:77:83:4b:
                    8f:e5:11:cf:03:ab:6d:9c:1f:db:d8:f9:5e:fd:85:
                    42:c8:09:91:58:9c:4c:95:0a:46:ec:05:57:03:c4:
                    6a:a0:4b:69:a4:04:30:eb:d1:e7:e0:da:2a:d0:ac:
                    83:9d:52:46:ed
                ASN1 OID: prime256v1
                NIST CURVE: P-256
    Signature Algorithm: ecdsa-with-SHA256
    Signature Value:
        30:46:02:21:00:c5:73:ce:d3:81:d0:24:43:66:64:6b:a7:23:
        75:e0:46:03:c2:2f:71:19:66:b1:aa:63:d8:71:7e:f2:27:4c:
        c0:02:21:00:bf:f2:09:9b:fc:f4:78:66:19:18:de:e4:34:00:
        28:e2:77:67:d6:82:7e:f6:06:91:78:88:76:d6:9e:2b:33:65
-----BEGIN CERTIFICATE-----
MIIBpDCCAUkCAhADMAoGCCqGSM49BAMCMFUxCzAJBgNVBAYTAkNIMQ8wDQYDVQQI
DAZHZW5ldmExDDAKBgNVBAoMA1dITzEPMA0GA1UECwwGVE5HX1RBMRYwFAYDVQQD
DA1XSE8gVE5HX1RBIENBMB4XDTIzMDYyNzE5MDczMloXDTI0MDcwNjE5MDczMlow
ZTELMAkGA1UEBhMCSVMxHjAcBgNVBAoMFURpcmVjdG9yYXRlIG9mIEhlYWx0aDEe
MBwGA1UECwwVRGlyZWN0b3JhdGUgb2YgSGVhbHRoMRYwFAYDVQQDDA1JUyBER0Mg
Q1NDQSAxMFkwEwYHKoZIzj0CAQYIKoZIzj0DAQcDQgAETb5VT8Z6UQ6CEuF3g0uP
5RHPA6ttnB/b2Ple/YVCyAmRWJxMlQpG7AVXA8RqoEtppAQw69Hn4Noq0KyDnVJG
7TAKBggqhkjOPQQDAgNJADBGAiEAxXPO04HQJENmZGunI3XgRgPCL3EZZrGqY9hx
fvInTMACIQC/8gmb/PR4ZhkY3uQ0ACjid2fWgn72BpF4iHbWniszZQ==
-----END CERTIFICATE-----
