Certificate:
    Data:
        Version: 1 (0x0)
        Serial Number: 4108 (0x100c)
        Signature Algorithm: ecdsa-with-SHA256
        Issuer: C=CH, ST=Geneva, O=WHO, OU=TNG_TA, CN=WHO TNG_TA CA
        Validity
            Not Before: Jun 28 11:06:12 2023 GMT
            Not After : Jul  7 11:06:12 2024 GMT
        Subject: C=IS, O=Directorate of Health, OU=Directorate of Health, CN=IS DGC CSCA 1
        Subject Public Key Info:
            Public Key Algorithm: id-ecPublicKey
                Public-Key: (256 bit)
                pub:
                    04:4d:be:55:4f:c6:7a:51:0e:82:12:e1:77:83:4b:
                    8f:e5:11:cf:03:ab:6d:9c:1f:db:d8:f9:5e:fd:85:
                    42:c8:09:91:58:9c:4c:95:0a:46:ec:05:57:03:c4:
                    6a:a0:4b:69:a4:04:30:eb:d1:e7:e0:da:2a:d0:ac:
                    83:9d:52:46:ed
                ASN1 OID: prime256v1
                NIST CURVE: P-256
    Signature Algorithm: ecdsa-with-SHA256
    Signature Value:
        30:45:02:21:00:88:44:ea:dd:db:6b:6a:45:47:3f:d1:4d:74:
        1f:9c:44:57:c1:a7:9b:05:38:b6:76:29:97:ea:3d:67:d3:d4:
        24:02:20:0b:a2:5d:dc:a7:be:0b:60:12:ba:16:40:7d:84:d3:
        27:b1:5b:bb:3e:4b:9e:87:c4:94:83:0c:c6:60:f9:d9:75
-----BEGIN CERTIFICATE-----
MIIBozCCAUkCAhAMMAoGCCqGSM49BAMCMFUxCzAJBgNVBAYTAkNIMQ8wDQYDVQQI
DAZHZW5ldmExDDAKBgNVBAoMA1dITzEPMA0GA1UECwwGVE5HX1RBMRYwFAYDVQQD
DA1XSE8gVE5HX1RBIENBMB4XDTIzMDYyODExMDYxMloXDTI0MDcwNzExMDYxMlow
ZTELMAkGA1UEBhMCSVMxHjAcBgNVBAoMFURpcmVjdG9yYXRlIG9mIEhlYWx0aDEe
MBwGA1UECwwVRGlyZWN0b3JhdGUgb2YgSGVhbHRoMRYwFAYDVQQDDA1JUyBER0Mg
Q1NDQSAxMFkwEwYHKoZIzj0CAQYIKoZIzj0DAQcDQgAETb5VT8Z6UQ6CEuF3g0uP
5RHPA6ttnB/b2Ple/YVCyAmRWJxMlQpG7AVXA8RqoEtppAQw69Hn4Noq0KyDnVJG
7TAKBggqhkjOPQQDAgNIADBFAiEAiETq3dtrakVHP9FNdB+cRFfBp5sFOLZ2KZfq
PWfT1CQCIAuiXdynvgtgEroWQH2E0yexW7s+S56HxJSDDMZg+dl1
-----END CERTIFICATE-----
