Certificate:
    Data:
        Version: 1 (0x0)
        Serial Number: 4117 (0x1015)
        Signature Algorithm: ecdsa-with-SHA256
        Issuer: C=CH, ST=Geneva, O=WHO, OU=TNG_TA, CN=WHO TNG_TA CA
        Validity
            Not Before: Jul 20 09:52:01 2023 GMT
            Not After : Jul 29 09:52:01 2024 GMT
        Subject: C=IS, O=Directorate of Health, OU=Directorate of Health, CN=IS DGC CSCA 1
        Subject Public Key Info:
            Public Key Algorithm: id-ecPublicKey
                Public-Key: (256 bit)
                pub:
                    04:4d:be:55:4f:c6:7a:51:0e:82:12:e1:77:83:4b:
                    8f:e5:11:cf:03:ab:6d:9c:1f:db:d8:f9:5e:fd:85:
                    42:c8:09:91:58:9c:4c:95:0a:46:ec:05:57:03:c4:
                    6a:a0:4b:69:a4:04:30:eb:d1:e7:e0:da:2a:d0:ac:
                    83:9d:52:46:ed
                ASN1 OID: prime256v1
                NIST CURVE: P-256
    Signature Algorithm: ecdsa-with-SHA256
    Signature Value:
        30:44:02:20:45:82:08:5f:59:fe:b3:88:09:2a:8a:a9:fc:83:
        61:5b:32:30:61:8f:20:78:34:80:84:ea:67:2c:c2:67:a4:4a:
        02:20:78:80:cd:f6:bf:6c:18:17:28:03:f0:41:f8:c0:4f:ef:
        2c:3e:67:3c:71:a8:1e:2d:a1:ce:26:86:52:91:3b:5c
-----BEGIN CERTIFICATE-----
MIIBojCCAUkCAhAVMAoGCCqGSM49BAMCMFUxCzAJBgNVBAYTAkNIMQ8wDQYDVQQI
DAZHZW5ldmExDDAKBgNVBAoMA1dITzEPMA0GA1UECwwGVE5HX1RBMRYwFAYDVQQD
DA1XSE8gVE5HX1RBIENBMB4XDTIzMDcyMDA5NTIwMVoXDTI0MDcyOTA5NTIwMVow
ZTELMAkGA1UEBhMCSVMxHjAcBgNVBAoMFURpcmVjdG9yYXRlIG9mIEhlYWx0aDEe
MBwGA1UECwwVRGlyZWN0b3JhdGUgb2YgSGVhbHRoMRYwFAYDVQQDDA1JUyBER0Mg
Q1NDQSAxMFkwEwYHKoZIzj0CAQYIKoZIzj0DAQcDQgAETb5VT8Z6UQ6CEuF3g0uP
5RHPA6ttnB/b2Ple/YVCyAmRWJxMlQpG7AVXA8RqoEtppAQw69Hn4Noq0KyDnVJG
7TAKBggqhkjOPQQDAgNHADBEAiBFgghfWf6ziAkqiqn8g2FbMjBhjyB4NICE6mcs
wmekSgIgeIDN9r9sGBcoA/BB+MBP7yw+ZzxxqB4toc4mhlKRO1w=
-----END CERTIFICATE-----
